; Function Attrs: mustprogress uwtable
define hidden void @_ZN11doc_manager10deallocateEP3doc(ptr noundef nonnull align 8 dereferenceable(1080) %this, ptr noundef %src) local_unnamed_addr #3 align 2 personality ptr @__gxx_personality_v0 {
entry:
  %tobool.not = icmp eq ptr %src, null
  br i1 %tobool.not, label %return, label %if.end

if.end:                                           ; preds = %entry
  %0 = load ptr, ptr %src, align 8
  tail call void @_ZN11tbv_manager10deallocateEP3tbv(ptr noundef nonnull align 8 dereferenceable(552) %this, ptr noundef nonnull %0)
  %m_neg.i = getelementptr inbounds i8, ptr %src, i64 8
  %m_pos.i.i = getelementptr inbounds i8, ptr %src, i64 16
  %1 = load i32, ptr %m_pos.i.i, align 8
  %cmp4.not.i = icmp eq i32 %1, 0
  br i1 %cmp4.not.i, label %_ZN10union_bvecI11tbv_manager3tbvE5resetERS0_.exit, label %for.body.i

for.body.i:                                       ; preds = %if.end, %for.body.i
  %indvars.iv.i = phi i64 [ %indvars.iv.next.i, %for.body.i ], [ 0, %if.end ]
  %2 = load ptr, ptr %m_neg.i, align 8
  %arrayidx.i.i = getelementptr inbounds ptr, ptr %2, i64 %indvars.iv.i
  %3 = load ptr, ptr %arrayidx.i.i, align 8
  tail call void @_ZN11tbv_manager10deallocateEP3tbv(ptr noundef nonnull align 8 dereferenceable(552) %this, ptr noundef %3)
  %indvars.iv.next.i = add nuw nsw i64 %indvars.iv.i, 1
  %4 = load i32, ptr %m_pos.i.i, align 8
  %5 = zext i32 %4 to i64
  %cmp.i = icmp ult i64 %indvars.iv.next.i, %5
  br i1 %cmp.i, label %for.body.i, label %_ZN10union_bvecI11tbv_manager3tbvE5resetERS0_.exit, !llvm.loop !8

_ZN10union_bvecI11tbv_manager3tbvE5resetERS0_.exit: ; preds = %for.body.i, %if.end
  store i32 0, ptr %m_pos.i.i, align 8
  %6 = load ptr, ptr %m_neg.i, align 8
  %m_initial_buffer.i.i.i.i.i = getelementptr inbounds i8, ptr %src, i64 24
  %cmp.not.i.i.i.i.i = icmp eq ptr %6, %m_initial_buffer.i.i.i.i.i
  %cmp.i.i.i.i.i.i = icmp eq ptr %6, null
  %or.cond.i.i.i.i.i = or i1 %cmp.not.i.i.i.i.i, %cmp.i.i.i.i.i.i
  br i1 %or.cond.i.i.i.i.i, label %_ZN3docD2Ev.exit, label %if.end.i.i.i.i.i.i

if.end.i.i.i.i.i.i:                               ; preds = %_ZN10union_bvecI11tbv_manager3tbvE5resetERS0_.exit
  invoke void @_ZN6memory10deallocateEPv(ptr noundef nonnull %6)
          to label %_ZN3docD2Ev.exit unwind label %terminate.lpad.i.i.i

terminate.lpad.i.i.i:                             ; preds = %if.end.i.i.i.i.i.i
  %7 = landingpad { ptr, i32 }
          catch ptr null
  %8 = extractvalue { ptr, i32 } %7, 0
  tail call void @__clang_call_terminate(ptr %8) #17
  unreachable

_ZN3docD2Ev.exit:                                 ; preds = %_ZN10union_bvecI11tbv_manager3tbvE5resetERS0_.exit, %if.end.i.i.i.i.i.i
  %m_alloc = getelementptr inbounds i8, ptr %this, i64 560
  tail call void @_ZN22small_object_allocator10deallocateEmPv(ptr noundef nonnull align 8 dereferenceable(520) %m_alloc, i64 noundef 88, ptr noundef nonnull %src)
  br label %return

return:                                           ; preds = %entry, %_ZN3docD2Ev.exit
  ret void
}